; Function Attrs: nounwind uwtable
define void @Min_CoverCreate(ptr noundef captures(none) initializes((4, 8)) %0, ptr noundef readonly %1, i8 noundef signext %2) local_unnamed_addr #0 {
  %4 = getelementptr inbounds nuw i8, ptr %0, i64 4
  store i32 0, ptr %4, align 4, !tbaa !7
  %.not7 = icmp eq ptr %1, null
  br i1 %.not7, label %._crit_edge.thread, label %.lr.ph

.lr.ph:                                           ; preds = %3, %.lr.ph
  %.08 = phi ptr [ %5, %.lr.ph ], [ %1, %3 ]
  tail call void @Min_CubeCreate(ptr noundef %0, ptr noundef nonnull %.08, i8 noundef signext %2)
  %5 = load ptr, ptr %.08, align 8, !tbaa !16
  %.not = icmp eq ptr %5, null
  br i1 %.not, label %._crit_edge, label %.lr.ph, !llvm.loop !19

._crit_edge:                                      ; preds = %.lr.ph
  %.pre = load i32, ptr %4, align 4, !tbaa !7
  %6 = load i32, ptr %0, align 8, !tbaa !11
  %7 = icmp eq i32 %.pre, %6
  br i1 %7, label %10, label %.Vec_StrGrow.exit10_crit_edge.i

._crit_edge.thread:                               ; preds = %3
  %8 = load i32, ptr %0, align 8, !tbaa !11
  %9 = icmp eq i32 %8, 0
  br i1 %9, label %.thread, label %.Vec_StrGrow.exit10_crit_edge.i

.Vec_StrGrow.exit10_crit_edge.i:                  ; preds = %._crit_edge.thread, %._crit_edge
  %.phi.trans.insert.i = getelementptr inbounds nuw i8, ptr %0, i64 8
  %.pre.i = load ptr, ptr %.phi.trans.insert.i, align 8, !tbaa !12
  br label %Vec_StrPush.exit

10:                                               ; preds = %._crit_edge
  %11 = icmp slt i32 %.pre, 16
  br i1 %11, label %.thread, label %19

.thread:                                          ; preds = %._crit_edge.thread, %10
  %12 = getelementptr inbounds nuw i8, ptr %0, i64 8
  %13 = load ptr, ptr %12, align 8, !tbaa !12
  %.not9.i.i = icmp eq ptr %13, null
  br i1 %.not9.i.i, label %16, label %14

14:                                               ; preds = %.thread
  %15 = tail call dereferenceable_or_null(16) ptr @realloc(ptr noundef nonnull %13, i64 noundef 16) #12
  br label %Vec_StrGrow.exit.i

16:                                               ; preds = %.thread
  %17 = tail call noalias dereferenceable_or_null(16) ptr @malloc(i64 noundef 16) #13
  br label %Vec_StrGrow.exit.i

Vec_StrGrow.exit.i:                               ; preds = %16, %14
  %18 = phi ptr [ %15, %14 ], [ %17, %16 ]
  store ptr %18, ptr %12, align 8, !tbaa !12
  store i32 16, ptr %0, align 8, !tbaa !11
  br label %Vec_StrPush.exit

19:                                               ; preds = %10
  %20 = shl nuw nsw i32 %.pre, 1
  %21 = getelementptr inbounds nuw i8, ptr %0, i64 8
  %22 = load ptr, ptr %21, align 8, !tbaa !12
  %.not9.i9.i = icmp eq ptr %22, null
  %23 = zext nneg i32 %20 to i64
  br i1 %.not9.i9.i, label %26, label %24

24:                                               ; preds = %19
  %25 = tail call ptr @realloc(ptr noundef nonnull %22, i64 noundef %23) #12
  br label %28

26:                                               ; preds = %19
  %27 = tail call noalias ptr @malloc(i64 noundef %23) #13
  br label %28

28:                                               ; preds = %26, %24
  %29 = phi ptr [ %25, %24 ], [ %27, %26 ]
  store ptr %29, ptr %21, align 8, !tbaa !12
  store i32 %20, ptr %0, align 8, !tbaa !11
  br label %Vec_StrPush.exit

Vec_StrPush.exit:                                 ; preds = %.Vec_StrGrow.exit10_crit_edge.i, %Vec_StrGrow.exit.i, %28
  %30 = phi ptr [ %.pre.i, %.Vec_StrGrow.exit10_crit_edge.i ], [ %29, %28 ], [ %18, %Vec_StrGrow.exit.i ]
  %31 = load i32, ptr %4, align 4, !tbaa !7
  %32 = add nsw i32 %31, 1
  store i32 %32, ptr %4, align 4, !tbaa !7
  %33 = sext i32 %31 to i64
  %34 = getelementptr inbounds i8, ptr %30, i64 %33
  store i8 0, ptr %34, align 1, !tbaa !13
  ret void
}